; Function Attrs: nounwind uwtable
define ptr @Cgt_ClockGatingInt(ptr noundef %0, ptr noundef %1, ptr noundef %2, ptr noundef %3) local_unnamed_addr #4 {
  %5 = tail call ptr @Cgt_ClockGatingCandidates(ptr noundef %0, ptr noundef %1, ptr noundef %2, ptr noundef %3)
  %6 = getelementptr inbounds nuw i8, ptr %2, i64 24
  %7 = load i32, ptr %6, align 4, !tbaa !13
  %.not = icmp eq i32 %7, 0
  %8 = getelementptr inbounds nuw i8, ptr %2, i64 8
  %9 = load i32, ptr %8, align 4, !tbaa !9
  %10 = getelementptr inbounds nuw i8, ptr %2, i64 28
  %11 = load i32, ptr %10, align 4, !tbaa !14
  br i1 %.not, label %14, label %12

12:                                               ; preds = %4
  %13 = tail call ptr @Cgt_ManDecideArea(ptr noundef %0, ptr noundef %5, i32 noundef %9, i32 noundef %11) #17
  br label %16

14:                                               ; preds = %4
  %15 = tail call ptr @Cgt_ManDecideSimple(ptr noundef %0, ptr noundef %5, i32 noundef %9, i32 noundef %11) #17
  br label %16

16:                                               ; preds = %14, %12
  %.0 = phi ptr [ %13, %12 ], [ %15, %14 ]
  %17 = getelementptr i8, ptr %5, i64 4
  %.val811.i = load i32, ptr %17, align 4, !tbaa !76
  %18 = icmp sgt i32 %.val811.i, 0
  br i1 %18, label %.lr.ph.i, label %.critedge.i

.lr.ph.i:                                         ; preds = %16
  %19 = getelementptr i8, ptr %5, i64 8
  br label %20

20:                                               ; preds = %27, %.lr.ph.i
  %.val814.i = phi i32 [ %.val811.i, %.lr.ph.i ], [ %.val8.i, %27 ]
  %indvars.iv.i = phi i64 [ 0, %.lr.ph.i ], [ %indvars.iv.next.i, %27 ]
  %.val.i = load ptr, ptr %19, align 8, !tbaa !79
  %21 = getelementptr inbounds nuw ptr, ptr %.val.i, i64 %indvars.iv.i
  %22 = load ptr, ptr %21, align 8, !tbaa !32
  %.not.i = icmp eq ptr %22, null
  br i1 %.not.i, label %27, label %23

23:                                               ; preds = %20
  %24 = getelementptr inbounds nuw i8, ptr %22, i64 8
  %25 = load ptr, ptr %24, align 8, !tbaa !30
  %.not.i.i = icmp eq ptr %25, null
  br i1 %.not.i.i, label %Vec_PtrFree.exit.i, label %26

26:                                               ; preds = %23
  tail call void @free(ptr noundef nonnull %25) #17
  br label %Vec_PtrFree.exit.i

Vec_PtrFree.exit.i:                               ; preds = %26, %23
  tail call void @free(ptr noundef nonnull %22) #17
  %.val8.pre.i = load i32, ptr %17, align 4, !tbaa !76
  br label %27

27:                                               ; preds = %Vec_PtrFree.exit.i, %20
  %.val8.i = phi i32 [ %.val814.i, %20 ], [ %.val8.pre.i, %Vec_PtrFree.exit.i ]
  %indvars.iv.next.i = add nuw nsw i64 %indvars.iv.i, 1
  %28 = sext i32 %.val8.i to i64
  %29 = icmp slt i64 %indvars.iv.next.i, %28
  br i1 %29, label %20, label %.critedge.i, !llvm.loop !106

.critedge.i:                                      ; preds = %27, %16
  %30 = getelementptr inbounds nuw i8, ptr %5, i64 8
  %31 = load ptr, ptr %30, align 8, !tbaa !30
  %.not.i9.i = icmp eq ptr %31, null
  br i1 %.not.i9.i, label %Vec_VecFree.exit, label %32

32:                                               ; preds = %.critedge.i
  tail call void @free(ptr noundef nonnull %31) #17
  br label %Vec_VecFree.exit

Vec_VecFree.exit:                                 ; preds = %.critedge.i, %32
  tail call void @free(ptr noundef nonnull %5) #17
  ret ptr %.0
}